target datalayout = "e-m:e-p270:32:32-p271:32:32-p272:64:64-i64:64-i128:128-f80:128-n8:16:32:64-S128"
target triple = "x86_64-unknown-linux-gnu"

%"class.rocksdb::Slice" = type { ptr, i64 }
%"class.std::__cxx11::basic_string" = type { %"struct.std::__cxx11::basic_string<char>::_Alloc_hider", i64, %union.anon }
%"struct.std::__cxx11::basic_string<char>::_Alloc_hider" = type { ptr }
%union.anon = type { i64, [8 x i8] }
%"class.rocksdb::CacheHandleGuard" = type { ptr, ptr, ptr }
%"class.rocksdb::BlobContents" = type { %"class.std::unique_ptr.85", %"class.rocksdb::Slice" }
%"class.std::unique_ptr.85" = type { %"struct.std::__uniq_ptr_data.86" }
%"struct.std::__uniq_ptr_data.86" = type { %"class.std::__uniq_ptr_impl.87" }
%"class.std::__uniq_ptr_impl.87" = type { %"class.std::tuple.88" }
%"class.std::tuple.88" = type { %"struct.std::_Tuple_impl.89" }
%"struct.std::_Tuple_impl.89" = type { %"struct.std::_Tuple_impl.90", %"struct.std::_Head_base.92" }
%"struct.std::_Tuple_impl.90" = type { %"struct.std::_Head_base.91" }
%"struct.std::_Head_base.91" = type { %"struct.rocksdb::CustomDeleter" }
%"struct.rocksdb::CustomDeleter" = type { ptr }
%"struct.std::_Head_base.92" = type { ptr }
%"class.rocksdb::PinnableSlice" = type <{ %"class.rocksdb::Slice", %"class.rocksdb::Cleanable", %"class.std::__cxx11::basic_string", ptr, i8, [7 x i8] }>
%"class.rocksdb::Cleanable" = type { %"struct.rocksdb::Cleanable::Cleanup" }
%"struct.rocksdb::Cleanable::Cleanup" = type { ptr, ptr, ptr, ptr }

; Function Attrs: mustprogress uwtable
define linkonce_odr void @_ZN7rocksdb9Cleanable9DoCleanupEv(ptr noundef nonnull align 8 dereferenceable(32) %this) #0 comdat align 2 {
entry:
  %this.addr = alloca ptr, align 8
  %c = alloca ptr, align 8
  %next11 = alloca ptr, align 8
  store ptr %this, ptr %this.addr, align 8
  %this1 = load ptr, ptr %this.addr, align 8
  %cleanup_ = getelementptr inbounds %"class.rocksdb::Cleanable", ptr %this1, i32 0, i32 0
  %function = getelementptr inbounds %"struct.rocksdb::Cleanable::Cleanup", ptr %cleanup_, i32 0, i32 0
  %0 = load ptr, ptr %function, align 8
  %cmp = icmp ne ptr %0, null
  br i1 %cmp, label %if.then, label %if.end

if.then:                                          ; preds = %entry
  %cleanup_2 = getelementptr inbounds %"class.rocksdb::Cleanable", ptr %this1, i32 0, i32 0
  %function3 = getelementptr inbounds %"struct.rocksdb::Cleanable::Cleanup", ptr %cleanup_2, i32 0, i32 0
  %1 = load ptr, ptr %function3, align 8
  %cleanup_4 = getelementptr inbounds %"class.rocksdb::Cleanable", ptr %this1, i32 0, i32 0
  %arg1 = getelementptr inbounds %"struct.rocksdb::Cleanable::Cleanup", ptr %cleanup_4, i32 0, i32 1
  %2 = load ptr, ptr %arg1, align 8
  %cleanup_5 = getelementptr inbounds %"class.rocksdb::Cleanable", ptr %this1, i32 0, i32 0
  %arg2 = getelementptr inbounds %"struct.rocksdb::Cleanable::Cleanup", ptr %cleanup_5, i32 0, i32 2
  %3 = load ptr, ptr %arg2, align 8
  call void %1(ptr noundef %2, ptr noundef %3)
  %cleanup_6 = getelementptr inbounds %"class.rocksdb::Cleanable", ptr %this1, i32 0, i32 0
  %next = getelementptr inbounds %"struct.rocksdb::Cleanable::Cleanup", ptr %cleanup_6, i32 0, i32 3
  %4 = load ptr, ptr %next, align 8
  store ptr %4, ptr %c, align 8
  br label %for.cond

for.cond:                                         ; preds = %delete.end, %if.then
  %5 = load ptr, ptr %c, align 8
  %cmp7 = icmp ne ptr %5, null
  br i1 %cmp7, label %for.body, label %for.end

for.body:                                         ; preds = %for.cond
  %6 = load ptr, ptr %c, align 8
  %function8 = getelementptr inbounds %"struct.rocksdb::Cleanable::Cleanup", ptr %6, i32 0, i32 0
  %7 = load ptr, ptr %function8, align 8
  %8 = load ptr, ptr %c, align 8
  %arg19 = getelementptr inbounds %"struct.rocksdb::Cleanable::Cleanup", ptr %8, i32 0, i32 1
  %9 = load ptr, ptr %arg19, align 8
  %10 = load ptr, ptr %c, align 8
  %arg210 = getelementptr inbounds %"struct.rocksdb::Cleanable::Cleanup", ptr %10, i32 0, i32 2
  %11 = load ptr, ptr %arg210, align 8
  call void %7(ptr noundef %9, ptr noundef %11)
  %12 = load ptr, ptr %c, align 8
  %next12 = getelementptr inbounds %"struct.rocksdb::Cleanable::Cleanup", ptr %12, i32 0, i32 3
  %13 = load ptr, ptr %next12, align 8
  store ptr %13, ptr %next11, align 8
  %14 = load ptr, ptr %c, align 8
  %isnull = icmp eq ptr %14, null
  br i1 %isnull, label %delete.end, label %delete.notnull

delete.notnull:                                   ; preds = %for.body
  call void @_ZdlPv(ptr noundef %14) #19
  br label %delete.end

delete.end:                                       ; preds = %delete.notnull, %for.body
  %15 = load ptr, ptr %next11, align 8
  store ptr %15, ptr %c, align 8
  br label %for.cond, !llvm.loop !9

for.end:                                          ; preds = %for.cond
  br label %if.end

if.end:                                           ; preds = %for.end, %entry
  ret void
}

; Function Attrs: mustprogress nounwind uwtable
define linkonce_odr void @_ZN7rocksdb16CacheHandleGuardINS_12BlobContentsEE11ResetFieldsEv(ptr noundef nonnull align 8 dereferenceable(24) %this) #1 comdat align 2 {
entry:
  %this.addr = alloca ptr, align 8
  store ptr %this, ptr %this.addr, align 8
  %this1 = load ptr, ptr %this.addr, align 8
  %cache_ = getelementptr inbounds %"class.rocksdb::CacheHandleGuard", ptr %this1, i32 0, i32 0
  store ptr null, ptr %cache_, align 8
  %handle_ = getelementptr inbounds %"class.rocksdb::CacheHandleGuard", ptr %this1, i32 0, i32 1
  store ptr null, ptr %handle_, align 8
  %value_ = getelementptr inbounds %"class.rocksdb::CacheHandleGuard", ptr %this1, i32 0, i32 2
  store ptr null, ptr %value_, align 8
  ret void
}

; Function Attrs: mustprogress nounwind uwtable
define linkonce_odr noundef i64 @_ZNK7rocksdb5Slice4sizeEv(ptr noundef nonnull align 8 dereferenceable(16) %this) #1 comdat align 2 {
entry:
  %this.addr = alloca ptr, align 8
  store ptr %this, ptr %this.addr, align 8
  %this1 = load ptr, ptr %this.addr, align 8
  %size_ = getelementptr inbounds %"class.rocksdb::Slice", ptr %this1, i32 0, i32 1
  %0 = load i64, ptr %size_, align 8
  ret i64 %0
}

; Function Attrs: mustprogress nounwind uwtable
define linkonce_odr noundef ptr @_ZNK7rocksdb5Slice4dataEv(ptr noundef nonnull align 8 dereferenceable(16) %this) #1 comdat align 2 {
entry:
  %this.addr = alloca ptr, align 8
  store ptr %this, ptr %this.addr, align 8
  %this1 = load ptr, ptr %this.addr, align 8
  %data_ = getelementptr inbounds %"class.rocksdb::Slice", ptr %this1, i32 0, i32 0
  %0 = load ptr, ptr %data_, align 8
  ret ptr %0
}

; Function Attrs: mustprogress uwtable
define linkonce_odr void @_ZN7rocksdb9Cleanable5ResetEv(ptr noundef nonnull align 8 dereferenceable(32) %this) #0 comdat align 2 {
entry:
  %this.addr = alloca ptr, align 8
  store ptr %this, ptr %this.addr, align 8
  %this1 = load ptr, ptr %this.addr, align 8
  call void @_ZN7rocksdb9Cleanable9DoCleanupEv(ptr noundef nonnull align 8 dereferenceable(32) %this1)
  %cleanup_ = getelementptr inbounds %"class.rocksdb::Cleanable", ptr %this1, i32 0, i32 0
  %function = getelementptr inbounds %"struct.rocksdb::Cleanable::Cleanup", ptr %cleanup_, i32 0, i32 0
  store ptr null, ptr %function, align 8
  %cleanup_2 = getelementptr inbounds %"class.rocksdb::Cleanable", ptr %this1, i32 0, i32 0
  %next = getelementptr inbounds %"struct.rocksdb::Cleanable::Cleanup", ptr %cleanup_2, i32 0, i32 3
  store ptr null, ptr %next, align 8
  ret void
}

; Function Attrs: mustprogress uwtable
define linkonce_odr void @_ZN7rocksdb16CacheHandleGuardINS_12BlobContentsEE10TransferToEPNS_9CleanableE(ptr noundef nonnull align 8 dereferenceable(24) %this, ptr noundef %cleanable) #0 comdat align 2 {
entry:
  %this.addr = alloca ptr, align 8
  %cleanable.addr = alloca ptr, align 8
  store ptr %this, ptr %this.addr, align 8
  store ptr %cleanable, ptr %cleanable.addr, align 8
  %this1 = load ptr, ptr %this.addr, align 8
  %0 = load ptr, ptr %cleanable.addr, align 8
  %tobool = icmp ne ptr %0, null
  br i1 %tobool, label %if.then, label %if.end4

if.then:                                          ; preds = %entry
  %handle_ = getelementptr inbounds %"class.rocksdb::CacheHandleGuard", ptr %this1, i32 0, i32 1
  %1 = load ptr, ptr %handle_, align 8
  %cmp = icmp ne ptr %1, null
  br i1 %cmp, label %if.then2, label %if.end

if.then2:                                         ; preds = %if.then
  %2 = load ptr, ptr %cleanable.addr, align 8
  %cache_ = getelementptr inbounds %"class.rocksdb::CacheHandleGuard", ptr %this1, i32 0, i32 0
  %3 = load ptr, ptr %cache_, align 8
  %handle_3 = getelementptr inbounds %"class.rocksdb::CacheHandleGuard", ptr %this1, i32 0, i32 1
  %4 = load ptr, ptr %handle_3, align 8
  call void @_ZN7rocksdb9Cleanable15RegisterCleanupEPFvPvS1_ES1_S1_(ptr noundef nonnull align 8 dereferenceable(32) %2, ptr noundef @_ZN7rocksdb25ReleaseCacheHandleCleanupEPvS0_, ptr noundef %3, ptr noundef %4)
  br label %if.end

if.end:                                           ; preds = %if.then2, %if.then
  br label %if.end4

if.end4:                                          ; preds = %if.end, %entry
  call void @_ZN7rocksdb16CacheHandleGuardINS_12BlobContentsEE11ResetFieldsEv(ptr noundef nonnull align 8 dereferenceable(24) %this1)
  ret void
}

; Function Attrs: mustprogress uwtable
define linkonce_odr void @_ZN7rocksdb13PinnableSlice8PinSliceERKNS_5SliceEPNS_9CleanableE(ptr noundef nonnull align 8 dereferenceable(89) %this, ptr noundef nonnull align 8 dereferenceable(16) %s, ptr noundef %cleanable) #0 comdat align 2 {
entry:
  %this.addr = alloca ptr, align 8
  %s.addr = alloca ptr, align 8
  %cleanable.addr = alloca ptr, align 8
  store ptr %this, ptr %this.addr, align 8
  store ptr %s, ptr %s.addr, align 8
  store ptr %cleanable, ptr %cleanable.addr, align 8
  %this1 = load ptr, ptr %this.addr, align 8
  %pinned_ = getelementptr inbounds %"class.rocksdb::PinnableSlice", ptr %this1, i32 0, i32 4
  store i8 1, ptr %pinned_, align 8
  %0 = load ptr, ptr %s.addr, align 8
  %call = call noundef ptr @_ZNK7rocksdb5Slice4dataEv(ptr noundef nonnull align 8 dereferenceable(16) %0)
  %data_ = getelementptr inbounds %"class.rocksdb::Slice", ptr %this1, i32 0, i32 0
  store ptr %call, ptr %data_, align 8
  %1 = load ptr, ptr %s.addr, align 8
  %call2 = call noundef i64 @_ZNK7rocksdb5Slice4sizeEv(ptr noundef nonnull align 8 dereferenceable(16) %1)
  %size_ = getelementptr inbounds %"class.rocksdb::Slice", ptr %this1, i32 0, i32 1
  store i64 %call2, ptr %size_, align 8
  %2 = load ptr, ptr %cleanable.addr, align 8
  %cmp = icmp ne ptr %2, null
  br i1 %cmp, label %if.then, label %if.end

if.then:                                          ; preds = %entry
  %3 = load ptr, ptr %cleanable.addr, align 8
  %add.ptr = getelementptr inbounds i8, ptr %this1, i64 16
  call void @_ZN7rocksdb9Cleanable18DelegateCleanupsToEPS0_(ptr noundef nonnull align 8 dereferenceable(32) %3, ptr noundef %add.ptr)
  br label %if.end

if.end:                                           ; preds = %if.then, %entry
  ret void
}

; Function Attrs: mustprogress nounwind uwtable
define linkonce_odr noundef nonnull align 8 dereferenceable(16) ptr @_ZNK7rocksdb12BlobContents4dataEv(ptr noundef nonnull align 8 dereferenceable(32) %this) #1 comdat align 2 {
entry:
  %this.addr = alloca ptr, align 8
  store ptr %this, ptr %this.addr, align 8
  %this1 = load ptr, ptr %this.addr, align 8
  %data_ = getelementptr inbounds %"class.rocksdb::BlobContents", ptr %this1, i32 0, i32 1
  ret ptr %data_
}

; Function Attrs: mustprogress nounwind uwtable
define linkonce_odr noundef ptr @_ZNK7rocksdb16CacheHandleGuardINS_12BlobContentsEE8GetValueEv(ptr noundef nonnull align 8 dereferenceable(24) %this) #1 comdat align 2 {
entry:
  %this.addr = alloca ptr, align 8
  store ptr %this, ptr %this.addr, align 8
  %this1 = load ptr, ptr %this.addr, align 8
  %value_ = getelementptr inbounds %"class.rocksdb::CacheHandleGuard", ptr %this1, i32 0, i32 2
  %0 = load ptr, ptr %value_, align 8
  ret ptr %0
}

; Function Attrs: mustprogress uwtable
define linkonce_odr void @_ZN7rocksdb13PinnableSlice5ResetEv(ptr noundef nonnull align 8 dereferenceable(89) %this) #0 comdat align 2 {
entry:
  %this.addr = alloca ptr, align 8
  store ptr %this, ptr %this.addr, align 8
  %this1 = load ptr, ptr %this.addr, align 8
  %add.ptr = getelementptr inbounds i8, ptr %this1, i64 16
  call void @_ZN7rocksdb9Cleanable5ResetEv(ptr noundef nonnull align 8 dereferenceable(32) %add.ptr)
  %pinned_ = getelementptr inbounds %"class.rocksdb::PinnableSlice", ptr %this1, i32 0, i32 4
  store i8 0, ptr %pinned_, align 8
  %size_ = getelementptr inbounds %"class.rocksdb::Slice", ptr %this1, i32 0, i32 1
  store i64 0, ptr %size_, align 8
  ret void
}

; Function Attrs: mustprogress uwtable
define void @_ZN7rocksdb10BlobSource13PinCachedBlobEPNS_16CacheHandleGuardINS_12BlobContentsEEEPNS_13PinnableSliceE(ptr noundef %cached_blob, ptr noundef %value) #0 align 2 {
entry:
  %cached_blob.addr = alloca ptr, align 8
  %value.addr = alloca ptr, align 8
  %cleanable = alloca ptr, align 8
  store ptr %cached_blob, ptr %cached_blob.addr, align 8
  store ptr %value, ptr %value.addr, align 8
  %0 = load ptr, ptr %value.addr, align 8
  call void @_ZN7rocksdb13PinnableSlice5ResetEv(ptr noundef nonnull align 8 dereferenceable(89) %0)
  store ptr null, ptr %cleanable, align 8
  %1 = load ptr, ptr %value.addr, align 8
  %2 = load ptr, ptr %cached_blob.addr, align 8
  %call = call noundef ptr @_ZNK7rocksdb16CacheHandleGuardINS_12BlobContentsEE8GetValueEv(ptr noundef nonnull align 8 dereferenceable(24) %2)
  %call1 = call noundef nonnull align 8 dereferenceable(16) ptr @_ZNK7rocksdb12BlobContents4dataEv(ptr noundef nonnull align 8 dereferenceable(32) %call)
  call void @_ZN7rocksdb13PinnableSlice8PinSliceERKNS_5SliceEPNS_9CleanableE(ptr noundef nonnull align 8 dereferenceable(89) %1, ptr noundef nonnull align 8 dereferenceable(16) %call1, ptr noundef null)
  %3 = load ptr, ptr %cached_blob.addr, align 8
  %4 = load ptr, ptr %value.addr, align 8
  %5 = icmp eq ptr %4, null
  br i1 %5, label %cast.end, label %cast.notnull

cast.notnull:                                     ; preds = %entry
  %add.ptr = getelementptr inbounds i8, ptr %4, i64 16
  br label %cast.end

cast.end:                                         ; preds = %cast.notnull, %entry
  %cast.result = phi ptr [ %add.ptr, %cast.notnull ], [ null, %entry ]
  call void @_ZN7rocksdb16CacheHandleGuardINS_12BlobContentsEE10TransferToEPNS_9CleanableE(ptr noundef nonnull align 8 dereferenceable(24) %3, ptr noundef %cast.result)
  ret void
}