; Function Attrs: mustprogress uwtable
define void @_ZN7rocksdb10BlobSource13PinCachedBlobEPNS_16CacheHandleGuardINS_12BlobContentsEEEPNS_13PinnableSliceE(ptr nocapture noundef %cached_blob, ptr noundef %value) local_unnamed_addr #2 align 2 {
entry:
  %add.ptr.i = getelementptr inbounds i8, ptr %value, i64 16
  %0 = load ptr, ptr %add.ptr.i, align 8
  %cmp.not.i.i.i = icmp eq ptr %0, null
  br i1 %cmp.not.i.i.i, label %_ZN7rocksdb13PinnableSlice5ResetEv.exit, label %if.then.i.i.i

if.then.i.i.i:                                    ; preds = %entry
  %arg1.i.i.i = getelementptr inbounds i8, ptr %value, i64 24
  %1 = load ptr, ptr %arg1.i.i.i, align 8
  %arg2.i.i.i = getelementptr inbounds i8, ptr %value, i64 32
  %2 = load ptr, ptr %arg2.i.i.i, align 8
  tail call void %0(ptr noundef %1, ptr noundef %2)
  %next.i.i.i = getelementptr inbounds i8, ptr %value, i64 40
  %3 = load ptr, ptr %next.i.i.i, align 8
  %cmp7.not6.i.i.i = icmp eq ptr %3, null
  br i1 %cmp7.not6.i.i.i, label %_ZN7rocksdb13PinnableSlice5ResetEv.exit, label %for.body.i.i.i

for.body.i.i.i:                                   ; preds = %if.then.i.i.i, %for.body.i.i.i
  %c.07.i.i.i = phi ptr [ %7, %for.body.i.i.i ], [ %3, %if.then.i.i.i ]
  %4 = load ptr, ptr %c.07.i.i.i, align 8
  %arg19.i.i.i = getelementptr inbounds i8, ptr %c.07.i.i.i, i64 8
  %5 = load ptr, ptr %arg19.i.i.i, align 8
  %arg210.i.i.i = getelementptr inbounds i8, ptr %c.07.i.i.i, i64 16
  %6 = load ptr, ptr %arg210.i.i.i, align 8
  tail call void %4(ptr noundef %5, ptr noundef %6)
  %next12.i.i.i = getelementptr inbounds i8, ptr %c.07.i.i.i, i64 24
  %7 = load ptr, ptr %next12.i.i.i, align 8
  tail call void @_ZdlPv(ptr noundef nonnull %c.07.i.i.i) #19
  %cmp7.not.i.i.i = icmp eq ptr %7, null
  br i1 %cmp7.not.i.i.i, label %_ZN7rocksdb13PinnableSlice5ResetEv.exit, label %for.body.i.i.i, !llvm.loop !16

_ZN7rocksdb13PinnableSlice5ResetEv.exit:          ; preds = %for.body.i.i.i, %entry, %if.then.i.i.i
  %next.i.i = getelementptr inbounds i8, ptr %value, i64 40
  store ptr null, ptr %next.i.i, align 8
  %pinned_.i = getelementptr inbounds i8, ptr %value, i64 88
  store i8 0, ptr %pinned_.i, align 8
  %size_.i = getelementptr inbounds i8, ptr %value, i64 8
  tail call void @llvm.memset.p0.i64(ptr noundef nonnull align 8 dereferenceable(16) %size_.i, i8 0, i64 16, i1 false)
  %value_.i = getelementptr inbounds i8, ptr %cached_blob, i64 16
  %8 = load ptr, ptr %value_.i, align 8
  %data_.i = getelementptr inbounds i8, ptr %8, i64 16
  store i8 1, ptr %pinned_.i, align 8
  %9 = load ptr, ptr %data_.i, align 8
  store ptr %9, ptr %value, align 8
  %size_.i.i = getelementptr inbounds i8, ptr %8, i64 24
  %10 = load i64, ptr %size_.i.i, align 8
  store i64 %10, ptr %size_.i, align 8
  %handle_.i = getelementptr inbounds i8, ptr %cached_blob, i64 8
  %11 = load ptr, ptr %handle_.i, align 8
  %cmp.not.i = icmp eq ptr %11, null
  br i1 %cmp.not.i, label %_ZN7rocksdb16CacheHandleGuardINS_12BlobContentsEE10TransferToEPNS_9CleanableE.exit, label %if.then2.i

if.then2.i:                                       ; preds = %_ZN7rocksdb13PinnableSlice5ResetEv.exit
  %12 = load ptr, ptr %cached_blob, align 8
  tail call void @_ZN7rocksdb9Cleanable15RegisterCleanupEPFvPvS1_ES1_S1_(ptr noundef nonnull align 8 dereferenceable(32) %add.ptr.i, ptr noundef nonnull @_ZN7rocksdb25ReleaseCacheHandleCleanupEPvS0_, ptr noundef %12, ptr noundef nonnull %11)
  br label %_ZN7rocksdb16CacheHandleGuardINS_12BlobContentsEE10TransferToEPNS_9CleanableE.exit

_ZN7rocksdb16CacheHandleGuardINS_12BlobContentsEE10TransferToEPNS_9CleanableE.exit: ; preds = %_ZN7rocksdb13PinnableSlice5ResetEv.exit, %if.then2.i
  tail call void @llvm.memset.p0.i64(ptr noundef nonnull align 8 dereferenceable(24) %cached_blob, i8 0, i64 24, i1 false)
  ret void
}